; Function Attrs: nounwind uwtable
define ptr @l_Lake_Toml_decNumberTailFn(ptr noundef %0, ptr noundef %1, ptr noundef %2) local_unnamed_addr #1 {
  %4 = getelementptr inbounds nuw i8, ptr %1, i64 8
  %5 = load ptr, ptr %4, align 8, !tbaa !10
  %6 = ptrtoint ptr %5 to i64
  %7 = and i64 %6, 1
  %.not = icmp eq i64 %7, 0
  br i1 %.not, label %8, label %lean_inc.exit35

8:                                                ; preds = %3
  %.val.i = load i32, ptr %5, align 4, !tbaa !4
  %9 = icmp sgt i32 %.val.i, 0
  br i1 %9, label %10, label %12, !prof !9

10:                                               ; preds = %8
  %11 = add nuw i32 %.val.i, 1
  store i32 %11, ptr %5, align 4, !tbaa !4
  br label %lean_inc.exit35

12:                                               ; preds = %8
  %.not.i44 = icmp eq i32 %.val.i, 0
  br i1 %.not.i44, label %lean_inc.exit35, label %13

13:                                               ; preds = %12
  tail call void @lean_inc_ref_cold(ptr noundef nonnull %5) #4
  br label %lean_inc.exit35

lean_inc.exit35:                                  ; preds = %13, %12, %10, %3
  %14 = getelementptr inbounds nuw i8, ptr %5, i64 8
  %15 = load ptr, ptr %14, align 8, !tbaa !10
  %16 = ptrtoint ptr %15 to i64
  %17 = and i64 %16, 1
  %.not63 = icmp eq i64 %17, 0
  br i1 %.not63, label %18, label %lean_inc.exit34

18:                                               ; preds = %lean_inc.exit35
  %.val.i45 = load i32, ptr %15, align 4, !tbaa !4
  %19 = icmp sgt i32 %.val.i45, 0
  br i1 %19, label %20, label %22, !prof !9

20:                                               ; preds = %18
  %21 = add nuw i32 %.val.i45, 1
  store i32 %21, ptr %15, align 4, !tbaa !4
  br label %lean_inc.exit34

22:                                               ; preds = %18
  %.not.i46 = icmp eq i32 %.val.i45, 0
  br i1 %.not.i46, label %lean_inc.exit34, label %23

23:                                               ; preds = %22
  tail call void @lean_inc_ref_cold(ptr noundef nonnull %15) #4
  br label %lean_inc.exit34

lean_inc.exit34:                                  ; preds = %23, %22, %20, %lean_inc.exit35
  br i1 %.not, label %24, label %lean_dec.exit33

24:                                               ; preds = %lean_inc.exit34
  %25 = load i32, ptr %5, align 4, !tbaa !4
  %26 = icmp sgt i32 %25, 1
  br i1 %26, label %27, label %29, !prof !9

27:                                               ; preds = %24
  %28 = add nsw i32 %25, -1
  store i32 %28, ptr %5, align 4, !tbaa !4
  br label %lean_dec.exit33

29:                                               ; preds = %24
  %.not.i = icmp eq i32 %25, 0
  br i1 %.not.i, label %lean_dec.exit33, label %30

30:                                               ; preds = %29
  tail call void @lean_dec_ref_cold(ptr noundef nonnull %5) #4
  br label %lean_dec.exit33

lean_dec.exit33:                                  ; preds = %30, %29, %27, %lean_inc.exit34
  %31 = getelementptr inbounds nuw i8, ptr %2, i64 24
  %32 = load ptr, ptr %31, align 8, !tbaa !10
  %33 = ptrtoint ptr %32 to i64
  %34 = and i64 %33, 1
  %.not64 = icmp eq i64 %34, 0
  br i1 %.not64, label %35, label %lean_string_utf8_at_end.exit

35:                                               ; preds = %lean_dec.exit33
  %.val.i48 = load i32, ptr %32, align 4, !tbaa !4
  %36 = icmp sgt i32 %.val.i48, 0
  br i1 %36, label %37, label %39, !prof !9

37:                                               ; preds = %35
  %38 = add nuw i32 %.val.i48, 1
  store i32 %38, ptr %32, align 4, !tbaa !4
  br label %65

39:                                               ; preds = %35
  %.not.i49 = icmp eq i32 %.val.i48, 0
  br i1 %.not.i49, label %lean_dec.exit30, label %40

40:                                               ; preds = %39
  tail call void @lean_inc_ref_cold(ptr noundef nonnull %32) #4
  %.pr59 = load i32, ptr %32, align 4, !tbaa !4
  br label %65

lean_string_utf8_at_end.exit:                     ; preds = %lean_dec.exit33
  %41 = lshr i64 %33, 1
  %42 = getelementptr i8, ptr %15, i64 8
  %.val.i52 = load i64, ptr %42, align 8, !tbaa !12
  %43 = add i64 %.val.i52, -1
  %.not65 = icmp ult i64 %41, %43
  br i1 %.not65, label %44, label %lean_dec.exit30

44:                                               ; preds = %lean_string_utf8_at_end.exit
  %45 = getelementptr inbounds nuw i8, ptr %15, i64 32
  %46 = getelementptr inbounds nuw i8, ptr %45, i64 %41
  %47 = load i8, ptr %46, align 1, !tbaa !14
  %48 = icmp sgt i8 %47, -1
  br i1 %48, label %lean_string_utf8_get_fast.exit.thread, label %lean_string_utf8_get_fast.exit

lean_string_utf8_get_fast.exit.thread:            ; preds = %44
  %49 = zext nneg i8 %47 to i32
  br label %52

lean_string_utf8_get_fast.exit:                   ; preds = %44
  %50 = tail call i32 @lean_string_utf8_get_fast_cold(ptr noundef nonnull %45, i64 noundef %41, i64 noundef %.val.i52, i8 noundef zeroext %47) #4
  %.pr = load i8, ptr %46, align 1, !tbaa !14
  %51 = icmp sgt i8 %.pr, -1
  br i1 %51, label %52, label %55

52:                                               ; preds = %lean_string_utf8_get_fast.exit.thread, %lean_string_utf8_get_fast.exit
  %.0.i58 = phi i32 [ %49, %lean_string_utf8_get_fast.exit.thread ], [ %50, %lean_string_utf8_get_fast.exit ]
  %53 = add i64 %33, 2
  %54 = inttoptr i64 %53 to ptr
  br label %lean_dec.exit32

55:                                               ; preds = %lean_string_utf8_get_fast.exit
  %56 = tail call ptr @lean_string_utf8_next_fast_cold(i64 noundef %41, i8 noundef zeroext %.pr) #4
  br label %lean_dec.exit32

lean_dec.exit32:                                  ; preds = %55, %52
  %.0.i57 = phi i32 [ %.0.i58, %52 ], [ %50, %55 ]
  %.0.i54 = phi ptr [ %54, %52 ], [ %56, %55 ]
  br i1 %.not63, label %57, label %lean_dec.exit31

57:                                               ; preds = %lean_dec.exit32
  %58 = load i32, ptr %15, align 4, !tbaa !4
  %59 = icmp sgt i32 %58, 1
  br i1 %59, label %60, label %62, !prof !9

60:                                               ; preds = %57
  %61 = add nsw i32 %58, -1
  store i32 %61, ptr %15, align 4, !tbaa !4
  br label %lean_dec.exit31

62:                                               ; preds = %57
  %.not.i38 = icmp eq i32 %58, 0
  br i1 %.not.i38, label %lean_dec.exit31, label %63

63:                                               ; preds = %62
  tail call void @lean_dec_ref_cold(ptr noundef nonnull %15) #4
  br label %lean_dec.exit31

lean_dec.exit31:                                  ; preds = %63, %62, %60, %lean_dec.exit32
  %64 = tail call ptr @l_Lake_Toml_decNumberTailAuxFn(ptr noundef %0, i32 noundef %.0.i57, ptr noundef %.0.i54, ptr noundef nonnull %1, ptr noundef nonnull %2)
  br label %82

65:                                               ; preds = %37, %40
  %66 = phi i32 [ %38, %37 ], [ %.pr59, %40 ]
  %67 = icmp sgt i32 %66, 1
  br i1 %67, label %68, label %70, !prof !15

68:                                               ; preds = %65
  %69 = add nsw i32 %66, -1
  store i32 %69, ptr %32, align 4, !tbaa !4
  br label %lean_dec.exit30

70:                                               ; preds = %65
  %.not.i40 = icmp eq i32 %66, 0
  br i1 %.not.i40, label %lean_dec.exit30, label %71

71:                                               ; preds = %70
  tail call void @lean_dec_ref_cold(ptr noundef nonnull %32) #4
  br label %lean_dec.exit30

lean_dec.exit30:                                  ; preds = %lean_string_utf8_at_end.exit, %39, %71, %70, %68
  br i1 %.not63, label %72, label %lean_dec.exit

72:                                               ; preds = %lean_dec.exit30
  %73 = load i32, ptr %15, align 4, !tbaa !4
  %74 = icmp sgt i32 %73, 1
  br i1 %74, label %75, label %77, !prof !9

75:                                               ; preds = %72
  %76 = add nsw i32 %73, -1
  store i32 %76, ptr %15, align 4, !tbaa !4
  br label %lean_dec.exit

77:                                               ; preds = %72
  %.not.i42 = icmp eq i32 %73, 0
  br i1 %.not.i42, label %lean_dec.exit, label %78

78:                                               ; preds = %77
  tail call void @lean_dec_ref_cold(ptr noundef nonnull %15) #4
  br label %lean_dec.exit

lean_dec.exit:                                    ; preds = %78, %77, %75, %lean_dec.exit30
  %79 = load ptr, ptr @l_Lake_Toml_decNumberTailAuxFn___closed__2, align 8, !tbaa !10
  %80 = load ptr, ptr @l_Lake_Toml_dateTimeLitFn___closed__6, align 8, !tbaa !10
  %81 = tail call ptr @l_Lake_Toml_pushLit(ptr noundef %79, ptr noundef %0, ptr noundef %80, ptr noundef nonnull %1, ptr noundef nonnull %2) #4
  br label %82

82:                                               ; preds = %lean_dec.exit, %lean_dec.exit31
  %.0 = phi ptr [ %64, %lean_dec.exit31 ], [ %81, %lean_dec.exit ]
  ret ptr %.0
}